(dp0
S'164'
p1
S'/No.jpg'
p2
sS'165'
p3
S'/No.jpg'
p4
sS'166'
p5
S'/No.jpg'
p6
sS'92'
p7
S'/433_92_202.jpg'
p8
sS'95'
p9
S'/No.jpg'
p10
sS'94'
p11
S'/No.jpg'
p12
sS'97'
p13
S'/436_97_206.jpg'
p14
sS'8'
p15
S'10_8_27.jpg'
p16
sS'163'
p17
S'/No.jpg'
p18
sS'120'
p19
S'/No.jpg'
p20
sS'121'
p21
S'/No.jpg'
p22
sS'122'
p23
S'/No.jpg'
p24
sS'123'
p25
S'/No.jpg'
p26
sS'124'
p27
S'/No.jpg'
p28
sS'125'
p29
S'/No.jpg'
p30
sS'126'
p31
S'/No.jpg'
p32
sS'127'
p33
S'/No.jpg'
p34
sS'128'
p35
S'/No.jpg'
p36
sS'129'
p37
S'/No.jpg'
p38
sS'199'
p39
S'/No.jpg'
p40
sS'198'
p41
S'/550_198_113.jpg'
p42
sS'195'
p43
S'/547_195_289.jpg'
p44
sS'194'
p45
S'/No.jpg'
p46
sS'197'
p47
S'/549_197_290.jpg'
p48
sS'196'
p49
S'/No.jpg'
p50
sS'191'
p51
S'/No.jpg'
p52
sS'190'
p53
S'/No.jpg'
p54
sS'193'
p55
S'/No.jpg'
p56
sS'192'
p57
S'/No.jpg'
p58
sS'3'
p59
S'48_3_7.jpg'
p60
sS'108'
p61
S'/441_108_209.jpg'
p62
sS'109'
p63
S'/No.jpg'
p64
sS'102'
p65
S'/437_102_207.jpg'
p66
sS'103'
p67
S'/No.jpg'
p68
sS'100'
p69
S'/No.jpg'
p70
sS'101'
p71
S'/No.jpg'
p72
sS'106'
p73
S'/439_106_49.jpg'
p74
sS'107'
p75
S'/No.jpg'
p76
sS'104'
p77
S'/No.jpg'
p78
sS'105'
p79
S'/No.jpg'
p80
sS'39'
p81
S'/335_39_49.jpg'
p82
sS'38'
p83
S'/No.jpg'
p84
sS'33'
p85
S'/306_33_128.jpg'
p86
sS'32'
p87
S'/No.jpg'
p88
sS'31'
p89
S'261_31_104.jpg'
p90
sS'30'
p91
S'250_30_98.jpg'
p92
sS'37'
p93
S'/578_37_113.jpg'
p94
sS'36'
p95
S'/No.jpg'
p96
sS'35'
p97
S'/No.jpg'
p98
sS'34'
p99
S'/No.jpg'
p100
sS'60'
p101
S'/No.jpg'
p102
sS'61'
p103
S'/410_61_49.jpg'
p104
sS'62'
p105
S'/No.jpg'
p106
sS'63'
p107
S'/No.jpg'
p108
sS'64'
p109
S'/No.jpg'
p110
sS'65'
p111
S'/413_65_181.jpg'
p112
sS'66'
p113
S'/No.jpg'
p114
sS'67'
p115
S'/No.jpg'
p116
sS'68'
p117
S'/No.jpg'
p118
sS'69'
p119
S'/No.jpg'
p120
sS'6'
p121
S'/No.jpg'
p122
sS'99'
p123
S'/No.jpg'
p124
sS'98'
p125
S'/No.jpg'
p126
sS'168'
p127
S'/No.jpg'
p128
sS'169'
p129
S'/No.jpg'
p130
sS'91'
p131
S'/No.jpg'
p132
sS'90'
p133
S'/No.jpg'
p134
sS'93'
p135
S'/No.jpg'
p136
sS'167'
p137
S'/480_167_242.jpg'
p138
sS'160'
p139
S'/No.jpg'
p140
sS'161'
p141
S'/498_161_136.jpg'
p142
sS'162'
p143
S'/No.jpg'
p144
sS'96'
p145
S'/No.jpg'
p146
sS'41'
p147
S'/338_41_113.jpg'
p148
sS'238'
p149
S'/574_238_312.jpg'
p150
sS'239'
p151
S'/No.jpg'
p152
sS'234'
p153
S'/579_234_136.jpg'
p154
sS'235'
p155
S'/573_235_311.jpg'
p156
sS'236'
p157
S'/No.jpg'
p158
sS'237'
p159
S'/No.jpg'
p160
sS'230'
p161
S'/No.jpg'
p162
sS'231'
p163
S'/568_231_305.jpg'
p164
sS'232'
p165
S'/No.jpg'
p166
sS'233'
p167
S'/No.jpg'
p168
sS'1'
p169
S'1_1_10.jpg'
p170
sS'9'
p171
S'11_9_27.jpg'
p172
sS'146'
p173
S'/No.jpg'
p174
sS'147'
p175
S'/No.jpg'
p176
sS'144'
p177
S'/475_144_239.jpg'
p178
sS'145'
p179
S'/No.jpg'
p180
sS'142'
p181
S'/No.jpg'
p182
sS'143'
p183
S'/No.jpg'
p184
sS'140'
p185
S'/478_140_72.jpg'
p186
sS'141'
p187
S'/No.jpg'
p188
sS'148'
p189
S'/No.jpg'
p190
sS'149'
p191
S'/No.jpg'
p192
sS'216'
p193
S'/No.jpg'
p194
sS'217'
p195
S'/No.jpg'
p196
sS'214'
p197
S'/558_214_297.jpg'
p198
sS'215'
p199
S'/559_215_298.jpg'
p200
sS'212'
p201
S'/553_212_136.jpg'
p202
sS'213'
p203
S'/No.jpg'
p204
sS'210'
p205
S'/No.jpg'
p206
sS'211'
p207
S'/No.jpg'
p208
sS'218'
p209
S'/561_218_299.jpg'
p210
sS'219'
p211
S'/No.jpg'
p212
sS'133'
p213
S'/No.jpg'
p214
sS'132'
p215
S'/462_132_136.jpg'
p216
sS'131'
p217
S'/461_131_136.jpg'
p218
sS'130'
p219
S'/No.jpg'
p220
sS'137'
p221
S'/468_137_113.jpg'
p222
sS'136'
p223
S'/466_136_234.jpg'
p224
sS'135'
p225
S'/No.jpg'
p226
sS'134'
p227
S'/464_134_232.jpg'
p228
sS'139'
p229
S'/No.jpg'
p230
sS'138'
p231
S'/No.jpg'
p232
sS'24'
p233
S'114_24_65.jpg'
p234
sS'25'
p235
S'136_25_69.jpg'
p236
sS'26'
p237
S'/No.jpg'
p238
sS'27'
p239
S'149_27_71.jpg'
p240
sS'20'
p241
S'69_20_43.jpg'
p242
sS'21'
p243
S'/No.jpg'
p244
sS'22'
p245
S'81_22_47.jpg'
p246
sS'23'
p247
S'86_23_50.jpg'
p248
sS'28'
p249
S'/174_28_49.jpg'
p250
sS'29'
p251
S'239_29_87.jpg'
p252
sS'4'
p253
S'/No.jpg'
p254
sS'59'
p255
S'/No.jpg'
p256
sS'58'
p257
S'/403_58_113.jpg'
p258
sS'55'
p259
S'/396_55_171.jpg'
p260
sS'54'
p261
S'/387_54_136.jpg'
p262
sS'57'
p263
S'/No.jpg'
p264
sS'56'
p265
S'/No.jpg'
p266
sS'51'
p267
S'/No.jpg'
p268
sS'50'
p269
S'/No.jpg'
p270
sS'53'
p271
S'/No.jpg'
p272
sS'52'
p273
S'/No.jpg'
p274
sS'115'
p275
S'/448_115_216.jpg'
p276
sS'114'
p277
S'/445_114_215.jpg'
p278
sS'88'
p279
S'/No.jpg'
p280
sS'89'
p281
S'/No.jpg'
p282
sS'111'
p283
S'/No.jpg'
p284
sS'110'
p285
S'/443_110_213.jpg'
p286
sS'113'
p287
S'/No.jpg'
p288
sS'112'
p289
S'/No.jpg'
p290
sS'82'
p291
S'/No.jpg'
p292
sS'83'
p293
S'/No.jpg'
p294
sS'80'
p295
S'/No.jpg'
p296
sS'81'
p297
S'/429_81_49.jpg'
p298
sS'119'
p299
S'/460_119_229.jpg'
p300
sS'118'
p301
S'/453_118_222.jpg'
p302
sS'84'
p303
S'/No.jpg'
p304
sS'85'
p305
S'/No.jpg'
p306
sS'7'
p307
S'/No.jpg'
p308
sS'245'
p309
S'/577_245_322.jpg'
p310
sS'244'
p311
S'/No.jpg'
p312
sS'247'
p313
S'/No.jpg'
p314
sS'246'
p315
S'/No.jpg'
p316
sS'241'
p317
S'/No.jpg'
p318
sS'240'
p319
S'/No.jpg'
p320
sS'243'
p321
S'/576_243_321.jpg'
p322
sS'242'
p323
S'/575_242_136.jpg'
p324
sS'249'
p325
S'/No.jpg'
p326
sS'248'
p327
S'/No.jpg'
p328
sS'86'
p329
S'/No.jpg'
p330
sS'179'
p331
S'/506_179_253.jpg'
p332
sS'178'
p333
S'/505_178_252.jpg'
p334
sS'177'
p335
S'/No.jpg'
p336
sS'176'
p337
S'/No.jpg'
p338
sS'175'
p339
S'/No.jpg'
p340
sS'174'
p341
S'/No.jpg'
p342
sS'173'
p343
S'/No.jpg'
p344
sS'172'
p345
S'/No.jpg'
p346
sS'171'
p347
S'/503_171_136.jpg'
p348
sS'170'
p349
S'/No.jpg'
p350
sS'182'
p351
S'/513_182_259.jpg'
p352
sS'183'
p353
S'/516_183_262.jpg'
p354
sS'180'
p355
S'/548_180_72.jpg'
p356
sS'181'
p357
S'/No.jpg'
p358
sS'186'
p359
S'/546_186_287.jpg'
p360
sS'187'
p361
S'/No.jpg'
p362
sS'184'
p363
S'/521_184_267.jpg'
p364
sS'185'
p365
S'/528_185_272.jpg'
p366
sS'188'
p367
S'/No.jpg'
p368
sS'189'
p369
S'/No.jpg'
p370
sS'229'
p371
S'/No.jpg'
p372
sS'228'
p373
S'/No.jpg'
p374
sS'227'
p375
S'/No.jpg'
p376
sS'226'
p377
S'/No.jpg'
p378
sS'225'
p379
S'/No.jpg'
p380
sS'224'
p381
S'/No.jpg'
p382
sS'223'
p383
S'/No.jpg'
p384
sS'222'
p385
S'/No.jpg'
p386
sS'221'
p387
S'/No.jpg'
p388
sS'220'
p389
S'/562_220_300.jpg'
p390
sS'11'
p391
S'/No.jpg'
p392
sS'10'
p393
S'16_10_29.jpg'
p394
sS'13'
p395
S'/146_13_49.jpg'
p396
sS'12'
p397
S'24_12_36.jpg'
p398
sS'15'
p399
S'31_15_42.jpg'
p400
sS'14'
p401
S'28_14_39.jpg'
p402
sS'17'
p403
S'/No.jpg'
p404
sS'16'
p405
S'34_16_43.jpg'
p406
sS'19'
p407
S'64_19_43.jpg'
p408
sS'18'
p409
S'63_18_43.jpg'
p410
sS'117'
p411
S'/No.jpg'
p412
sS'116'
p413
S'/No.jpg'
p414
sS'151'
p415
S'/No.jpg'
p416
sS'150'
p417
S'/479_150_113.jpg'
p418
sS'153'
p419
S'/No.jpg'
p420
sS'152'
p421
S'/No.jpg'
p422
sS'155'
p423
S'/No.jpg'
p424
sS'154'
p425
S'/No.jpg'
p426
sS'157'
p427
S'/No.jpg'
p428
sS'156'
p429
S'/No.jpg'
p430
sS'159'
p431
S'/No.jpg'
p432
sS'158'
p433
S'/No.jpg'
p434
sS'48'
p435
S'/No.jpg'
p436
sS'49'
p437
S'/380_49_113.jpg'
p438
sS'46'
p439
S'/367_46_113.jpg'
p440
sS'47'
p441
S'/No.jpg'
p442
sS'44'
p443
S'/355_44_155.jpg'
p444
sS'45'
p445
S'/366_45_164.jpg'
p446
sS'42'
p447
S'/346_42_113.jpg'
p448
sS'43'
p449
S'/No.jpg'
p450
sS'40'
p451
S'/337_40_103.jpg'
p452
sS'87'
p453
S'/No.jpg'
p454
sS'5'
p455
S'/No.jpg'
p456
sS'201'
p457
S'/No.jpg'
p458
sS'200'
p459
S'/No.jpg'
p460
sS'203'
p461
S'/551_203_49.jpg'
p462
sS'202'
p463
S'/No.jpg'
p464
sS'205'
p465
S'/No.jpg'
p466
sS'204'
p467
S'/No.jpg'
p468
sS'207'
p469
S'/No.jpg'
p470
sS'206'
p471
S'/552_206_113.jpg'
p472
sS'209'
p473
S'/No.jpg'
p474
sS'208'
p475
S'/No.jpg'
p476
sS'77'
p477
S'/No.jpg'
p478
sS'76'
p479
S'/No.jpg'
p480
sS'75'
p481
S'/424_75_192.jpg'
p482
sS'74'
p483
S'/No.jpg'
p484
sS'73'
p485
S'/No.jpg'
p486
sS'72'
p487
S'/423_72_191.jpg'
p488
sS'71'
p489
S'/No.jpg'
p490
sS'70'
p491
S'/No.jpg'
p492
sS'79'
p493
S'/No.jpg'
p494
sS'78'
p495
S'/No.jpg'
p496
sS'2'
p497
S'2_2_22.jpg'
p498
s.